; Function Attrs: mustprogress uwtable
define dso_local void @_ZN2cm12uv_async_ptr4sendEv(ptr nocapture noundef nonnull readonly align 8 dereferenceable(16) %0) local_unnamed_addr #0 align 2 personality ptr @__gxx_personality_v0 {
_ZSt11get_deleterIN2cm17uv_handle_deleterI10uv_async_sEES2_EPT_RKSt10shared_ptrIT0_E.exit:
  %1 = getelementptr inbounds i8, ptr %0, i64 8
  %2 = load ptr, ptr %1, align 8, !nonnull !8, !noundef !8
  %3 = load ptr, ptr %2, align 8
  %4 = getelementptr inbounds i8, ptr %3, i64 32
  %5 = load ptr, ptr %4, align 8
  %6 = tail call noundef ptr %5(ptr noundef nonnull align 8 dereferenceable(16) %2, ptr noundef nonnull align 8 dereferenceable(16) @_ZTIN2cm17uv_handle_deleterI10uv_async_sEE) #16
  %7 = load ptr, ptr %6, align 8
  %8 = tail call noundef i32 @pthread_mutex_lock(ptr noundef nonnull %7) #16
  %.not.i.i = icmp eq i32 %8, 0
  br i1 %.not.i.i, label %_ZNSt10lock_guardISt5mutexEC2ERS0_.exit, label %9

9:                                                ; preds = %_ZSt11get_deleterIN2cm17uv_handle_deleterI10uv_async_sEES2_EPT_RKSt10shared_ptrIT0_E.exit
  tail call void @_ZSt20__throw_system_errori(i32 noundef %8) #19
  unreachable

_ZNSt10lock_guardISt5mutexEC2ERS0_.exit:          ; preds = %_ZSt11get_deleterIN2cm17uv_handle_deleterI10uv_async_sEES2_EPT_RKSt10shared_ptrIT0_E.exit
  %10 = load ptr, ptr %0, align 8
  %.not = icmp eq ptr %10, null
  br i1 %.not, label %16, label %11

11:                                               ; preds = %_ZNSt10lock_guardISt5mutexEC2ERS0_.exit
  %12 = invoke i32 @uv_async_send(ptr noundef nonnull %10)
          to label %16 unwind label %13

13:                                               ; preds = %11
  %14 = landingpad { ptr, i32 }
          cleanup
  %15 = tail call noundef i32 @pthread_mutex_unlock(ptr noundef nonnull %7) #16
  resume { ptr, i32 } %14

16:                                               ; preds = %11, %_ZNSt10lock_guardISt5mutexEC2ERS0_.exit
  %17 = tail call noundef i32 @pthread_mutex_unlock(ptr noundef nonnull %7) #16
  ret void
}